; Function Attrs: mustprogress uwtable
define void @_ZNK42MLRenderingDefaultDecoratorParametersFrame37getCurrentRenderingDataAccordingToGUIER15MLRenderingData(ptr nocapture noundef nonnull readonly align 8 dereferenceable(96) %0, ptr noundef nonnull align 8 dereferenceable(40) %1) unnamed_addr #3 align 2 {
  %3 = getelementptr inbounds i8, ptr %0, i64 56
  %4 = load ptr, ptr %3, align 8
  %5 = getelementptr inbounds i8, ptr %4, i64 56
  %6 = load ptr, ptr %5, align 8
  %.not.i = icmp eq ptr %6, null
  br i1 %.not.i, label %_ZNK23MLRenderingOnOffToolbar30getRenderingDataAccordingToGUIER15MLRenderingData.exit, label %7

7:                                                ; preds = %2
  %8 = load ptr, ptr %6, align 8
  %9 = getelementptr inbounds i8, ptr %8, i64 104
  %10 = load ptr, ptr %9, align 8
  tail call void %10(ptr noundef nonnull align 8 dereferenceable(16) %6, ptr noundef nonnull align 8 dereferenceable(40) %1)
  br label %_ZNK23MLRenderingOnOffToolbar30getRenderingDataAccordingToGUIER15MLRenderingData.exit

_ZNK23MLRenderingOnOffToolbar30getRenderingDataAccordingToGUIER15MLRenderingData.exit: ; preds = %2, %7
  %11 = getelementptr inbounds i8, ptr %0, i64 64
  %12 = load ptr, ptr %11, align 8
  %13 = getelementptr inbounds i8, ptr %12, i64 56
  %14 = load ptr, ptr %13, align 8
  %.not.i6 = icmp eq ptr %14, null
  br i1 %.not.i6, label %_ZNK23MLRenderingOnOffToolbar30getRenderingDataAccordingToGUIER15MLRenderingData.exit7, label %15

15:                                               ; preds = %_ZNK23MLRenderingOnOffToolbar30getRenderingDataAccordingToGUIER15MLRenderingData.exit
  %16 = load ptr, ptr %14, align 8
  %17 = getelementptr inbounds i8, ptr %16, i64 104
  %18 = load ptr, ptr %17, align 8
  tail call void %18(ptr noundef nonnull align 8 dereferenceable(16) %14, ptr noundef nonnull align 8 dereferenceable(40) %1)
  br label %_ZNK23MLRenderingOnOffToolbar30getRenderingDataAccordingToGUIER15MLRenderingData.exit7

_ZNK23MLRenderingOnOffToolbar30getRenderingDataAccordingToGUIER15MLRenderingData.exit7: ; preds = %_ZNK23MLRenderingOnOffToolbar30getRenderingDataAccordingToGUIER15MLRenderingData.exit, %15
  %19 = getelementptr inbounds i8, ptr %0, i64 80
  %20 = load ptr, ptr %19, align 8
  %21 = getelementptr inbounds i8, ptr %20, i64 56
  %22 = load ptr, ptr %21, align 8
  %.not.i8 = icmp eq ptr %22, null
  br i1 %.not.i8, label %_ZNK23MLRenderingOnOffToolbar30getRenderingDataAccordingToGUIER15MLRenderingData.exit9, label %23

23:                                               ; preds = %_ZNK23MLRenderingOnOffToolbar30getRenderingDataAccordingToGUIER15MLRenderingData.exit7
  %24 = load ptr, ptr %22, align 8
  %25 = getelementptr inbounds i8, ptr %24, i64 104
  %26 = load ptr, ptr %25, align 8
  tail call void %26(ptr noundef nonnull align 8 dereferenceable(16) %22, ptr noundef nonnull align 8 dereferenceable(40) %1)
  br label %_ZNK23MLRenderingOnOffToolbar30getRenderingDataAccordingToGUIER15MLRenderingData.exit9

_ZNK23MLRenderingOnOffToolbar30getRenderingDataAccordingToGUIER15MLRenderingData.exit9: ; preds = %_ZNK23MLRenderingOnOffToolbar30getRenderingDataAccordingToGUIER15MLRenderingData.exit7, %23
  %27 = getelementptr inbounds i8, ptr %0, i64 72
  %28 = load ptr, ptr %27, align 8
  %29 = getelementptr inbounds i8, ptr %28, i64 56
  %30 = load ptr, ptr %29, align 8
  %.not.i10 = icmp eq ptr %30, null
  br i1 %.not.i10, label %_ZNK23MLRenderingOnOffToolbar30getRenderingDataAccordingToGUIER15MLRenderingData.exit11, label %31

31:                                               ; preds = %_ZNK23MLRenderingOnOffToolbar30getRenderingDataAccordingToGUIER15MLRenderingData.exit9
  %32 = load ptr, ptr %30, align 8
  %33 = getelementptr inbounds i8, ptr %32, i64 104
  %34 = load ptr, ptr %33, align 8
  tail call void %34(ptr noundef nonnull align 8 dereferenceable(16) %30, ptr noundef nonnull align 8 dereferenceable(40) %1)
  br label %_ZNK23MLRenderingOnOffToolbar30getRenderingDataAccordingToGUIER15MLRenderingData.exit11

_ZNK23MLRenderingOnOffToolbar30getRenderingDataAccordingToGUIER15MLRenderingData.exit11: ; preds = %_ZNK23MLRenderingOnOffToolbar30getRenderingDataAccordingToGUIER15MLRenderingData.exit9, %31
  %35 = getelementptr inbounds i8, ptr %0, i64 88
  %36 = load ptr, ptr %35, align 8
  %37 = getelementptr inbounds i8, ptr %36, i64 56
  %38 = load ptr, ptr %37, align 8
  %.not.i12 = icmp eq ptr %38, null
  br i1 %.not.i12, label %_ZNK23MLRenderingOnOffToolbar30getRenderingDataAccordingToGUIER15MLRenderingData.exit13, label %39

39:                                               ; preds = %_ZNK23MLRenderingOnOffToolbar30getRenderingDataAccordingToGUIER15MLRenderingData.exit11
  %40 = load ptr, ptr %38, align 8
  %41 = getelementptr inbounds i8, ptr %40, i64 104
  %42 = load ptr, ptr %41, align 8
  tail call void %42(ptr noundef nonnull align 8 dereferenceable(16) %38, ptr noundef nonnull align 8 dereferenceable(40) %1)
  br label %_ZNK23MLRenderingOnOffToolbar30getRenderingDataAccordingToGUIER15MLRenderingData.exit13

_ZNK23MLRenderingOnOffToolbar30getRenderingDataAccordingToGUIER15MLRenderingData.exit13: ; preds = %_ZNK23MLRenderingOnOffToolbar30getRenderingDataAccordingToGUIER15MLRenderingData.exit11, %39
  ret void
}